target datalayout = "e-m:e-p270:32:32-p271:32:32-p272:64:64-i64:64-i128:128-f80:128-n8:16:32:64-S128"
target triple = "x86_64-pc-linux-gnu"

%struct.pm_lex_mode = type { i32, %union.anon, ptr }
%union.anon = type { %struct.anon.3 }
%struct.anon.3 = type { %struct.pm_heredoc_lex_mode_t, ptr, ptr, i8 }
%struct.pm_heredoc_lex_mode_t = type { ptr, i64, i32, i32 }
%struct.pm_parser = type { i32, i32, i32, i32, i32, i32, i32, %struct.anon, ptr, ptr, %struct.pm_token_t, %struct.pm_token_t, ptr, ptr, %struct.pm_list_t, %struct.pm_list_t, %struct.pm_location_t, %struct.pm_list_t, %struct.pm_list_t, ptr, ptr, ptr, ptr, ptr, ptr, ptr, %struct.pm_string_t, %struct.pm_constant_pool_t, %struct.pm_newline_list_t, i16, %struct.pm_string_t, i32, ptr, ptr, i32, i8, i8, i8, i8, i8, i8, i8, i8, i8, i8, i8, i8, i8 }
%struct.anon = type { ptr, [4 x %struct.pm_lex_mode], i64 }
%struct.pm_token_t = type { i32, ptr, ptr }
%struct.pm_location_t = type { ptr, ptr }
%struct.pm_list_t = type { i64, ptr, ptr }
%struct.pm_constant_pool_t = type { ptr, ptr, i32, i32 }
%struct.pm_newline_list_t = type { ptr, i64, i64, ptr }
%struct.pm_string_t = type { ptr, i64, i32 }
%struct.pm_constant_id_list_t = type { i64, i64, ptr }
%struct.pm_node = type { i16, i16, i32, %struct.pm_location_t }
%struct.pm_class_node = type { %struct.pm_node, %struct.pm_constant_id_list_t, %struct.pm_location_t, ptr, %struct.pm_location_t, ptr, ptr, %struct.pm_location_t, i32 }

@stderr = external global ptr, align 8
@.str.94 = private unnamed_addr constant [29 x i8] c"Failed to allocate %d bytes\0A\00", align 1

; Function Attrs: inlinehint nounwind sspstrong uwtable
define internal i32 @pm_parser_constant_id_location(ptr noundef %0, ptr noundef %1, ptr noundef %2) #7 {
  %4 = alloca ptr, align 8
  %5 = alloca ptr, align 8
  %6 = alloca ptr, align 8
  store ptr %0, ptr %4, align 8, !tbaa !7
  store ptr %1, ptr %5, align 8, !tbaa !12
  store ptr %2, ptr %6, align 8, !tbaa !12
  %7 = load ptr, ptr %4, align 8, !tbaa !7
  %8 = getelementptr inbounds nuw %struct.pm_parser, ptr %7, i32 0, i32 27
  %9 = load ptr, ptr %5, align 8, !tbaa !12
  %10 = load ptr, ptr %6, align 8, !tbaa !12
  %11 = load ptr, ptr %5, align 8, !tbaa !12
  %12 = ptrtoint ptr %10 to i64
  %13 = ptrtoint ptr %11 to i64
  %14 = sub i64 %12, %13
  %15 = call i32 @pm_constant_pool_insert_shared(ptr noundef %8, ptr noundef %9, i64 noundef %14)
  ret i32 %15
}

; Function Attrs: inlinehint nounwind sspstrong uwtable
define internal i32 @pm_parser_constant_id_token(ptr noundef %0, ptr noundef %1) #7 {
  %3 = alloca ptr, align 8
  %4 = alloca ptr, align 8
  store ptr %0, ptr %3, align 8, !tbaa !7
  store ptr %1, ptr %4, align 8, !tbaa !57
  %5 = load ptr, ptr %3, align 8, !tbaa !7
  %6 = load ptr, ptr %4, align 8, !tbaa !57
  %7 = getelementptr inbounds nuw %struct.pm_token_t, ptr %6, i32 0, i32 1
  %8 = load ptr, ptr %7, align 8, !tbaa !43
  %9 = load ptr, ptr %4, align 8, !tbaa !57
  %10 = getelementptr inbounds nuw %struct.pm_token_t, ptr %9, i32 0, i32 2
  %11 = load ptr, ptr %10, align 8, !tbaa !44
  %12 = call i32 @pm_parser_constant_id_location(ptr noundef %5, ptr noundef %8, ptr noundef %11)
  ret i32 %12
}

; Function Attrs: inlinehint nounwind sspstrong uwtable
define internal ptr @pm_node_alloc(ptr noundef %0, i64 noundef %1) #7 {
  %3 = alloca ptr, align 8
  %4 = alloca i64, align 8
  %5 = alloca ptr, align 8
  store ptr %0, ptr %3, align 8, !tbaa !7
  store i64 %1, ptr %4, align 8, !tbaa !14
  call void @llvm.lifetime.start.p0(i64 8, ptr %5) #15
  %6 = load i64, ptr %4, align 8, !tbaa !14
  %7 = call noalias ptr @calloc(i64 noundef 1, i64 noundef %6) #18
  store ptr %7, ptr %5, align 8, !tbaa !57
  %8 = load ptr, ptr %5, align 8, !tbaa !57
  %9 = icmp eq ptr %8, null
  br i1 %9, label %10, label %15

10:                                               ; preds = %2
  %11 = load ptr, ptr @stderr, align 8, !tbaa !452
  %12 = load i64, ptr %4, align 8, !tbaa !14
  %13 = trunc i64 %12 to i32
  %14 = call i32 (ptr, i32, ptr, ...) @__fprintf_chk(ptr noundef %11, i32 noundef 1, ptr noundef @.str.94, i32 noundef %13)
  call void @abort() #19
  unreachable

15:                                               ; preds = %2
  %16 = load ptr, ptr %5, align 8, !tbaa !57
  call void @llvm.lifetime.end.p0(i64 8, ptr %5) #15
  ret ptr %16
}

; Function Attrs: nounwind sspstrong uwtable
define internal ptr @pm_class_node_create(ptr noundef %0, ptr noundef %1, ptr noundef %2, ptr noundef %3, ptr noundef %4, ptr noundef %5, ptr noundef %6, ptr noundef %7, ptr noundef %8) #0 {
  %10 = alloca ptr, align 8
  %11 = alloca ptr, align 8
  %12 = alloca ptr, align 8
  %13 = alloca ptr, align 8
  %14 = alloca ptr, align 8
  %15 = alloca ptr, align 8
  %16 = alloca ptr, align 8
  %17 = alloca ptr, align 8
  %18 = alloca ptr, align 8
  %19 = alloca ptr, align 8
  %20 = alloca %struct.pm_class_node, align 8
  store ptr %0, ptr %10, align 8, !tbaa !7
  store ptr %1, ptr %11, align 8, !tbaa !57
  store ptr %2, ptr %12, align 8, !tbaa !57
  store ptr %3, ptr %13, align 8, !tbaa !128
  store ptr %4, ptr %14, align 8, !tbaa !57
  store ptr %5, ptr %15, align 8, !tbaa !57
  store ptr %6, ptr %16, align 8, !tbaa !128
  store ptr %7, ptr %17, align 8, !tbaa !128
  store ptr %8, ptr %18, align 8, !tbaa !57
  call void @llvm.lifetime.start.p0(i64 8, ptr %19) #15
  %21 = load ptr, ptr %10, align 8, !tbaa !7
  %22 = call ptr @pm_node_alloc(ptr noundef %21, i64 noundef 128)
  store ptr %22, ptr %19, align 8, !tbaa !682
  %23 = load ptr, ptr %19, align 8, !tbaa !682
  %24 = getelementptr inbounds nuw %struct.pm_class_node, ptr %20, i32 0, i32 0
  %25 = getelementptr inbounds nuw %struct.pm_node, ptr %24, i32 0, i32 0
  store i16 26, ptr %25, align 8, !tbaa !206
  %26 = getelementptr inbounds nuw %struct.pm_node, ptr %24, i32 0, i32 1
  store i16 0, ptr %26, align 2, !tbaa !222
  %27 = getelementptr inbounds nuw %struct.pm_node, ptr %24, i32 0, i32 2
  %28 = load ptr, ptr %10, align 8, !tbaa !7
  %29 = getelementptr inbounds nuw %struct.pm_parser, ptr %28, i32 0, i32 0
  %30 = load i32, ptr %29, align 8, !tbaa !238
  %31 = add i32 %30, 1
  store i32 %31, ptr %29, align 8, !tbaa !238
  store i32 %31, ptr %27, align 4, !tbaa !239
  %32 = getelementptr inbounds nuw %struct.pm_node, ptr %24, i32 0, i32 3
  %33 = getelementptr inbounds nuw %struct.pm_location_t, ptr %32, i32 0, i32 0
  %34 = load ptr, ptr %12, align 8, !tbaa !57
  %35 = getelementptr inbounds nuw %struct.pm_token_t, ptr %34, i32 0, i32 1
  %36 = load ptr, ptr %35, align 8, !tbaa !43
  store ptr %36, ptr %33, align 8, !tbaa !152
  %37 = getelementptr inbounds nuw %struct.pm_location_t, ptr %32, i32 0, i32 1
  %38 = load ptr, ptr %18, align 8, !tbaa !57
  %39 = getelementptr inbounds nuw %struct.pm_token_t, ptr %38, i32 0, i32 2
  %40 = load ptr, ptr %39, align 8, !tbaa !44
  store ptr %40, ptr %37, align 8, !tbaa !153
  %41 = getelementptr inbounds nuw %struct.pm_class_node, ptr %20, i32 0, i32 1
  %42 = load ptr, ptr %11, align 8, !tbaa !57
  call void @llvm.memcpy.p0.p0.i64(ptr align 8 %41, ptr align 8 %42, i64 24, i1 false), !tbaa.struct !246
  %43 = getelementptr inbounds nuw %struct.pm_class_node, ptr %20, i32 0, i32 2
  %44 = getelementptr inbounds nuw %struct.pm_location_t, ptr %43, i32 0, i32 0
  %45 = load ptr, ptr %12, align 8, !tbaa !57
  %46 = getelementptr inbounds nuw %struct.pm_token_t, ptr %45, i32 0, i32 1
  %47 = load ptr, ptr %46, align 8, !tbaa !43
  store ptr %47, ptr %44, align 8, !tbaa !152
  %48 = getelementptr inbounds nuw %struct.pm_location_t, ptr %43, i32 0, i32 1
  %49 = load ptr, ptr %12, align 8, !tbaa !57
  %50 = getelementptr inbounds nuw %struct.pm_token_t, ptr %49, i32 0, i32 2
  %51 = load ptr, ptr %50, align 8, !tbaa !44
  store ptr %51, ptr %48, align 8, !tbaa !153
  %52 = getelementptr inbounds nuw %struct.pm_class_node, ptr %20, i32 0, i32 3
  %53 = load ptr, ptr %13, align 8, !tbaa !128
  store ptr %53, ptr %52, align 8, !tbaa !684
  %54 = getelementptr inbounds nuw %struct.pm_class_node, ptr %20, i32 0, i32 4
  %55 = load ptr, ptr %15, align 8, !tbaa !57
  %56 = getelementptr inbounds nuw %struct.pm_token_t, ptr %55, i32 0, i32 0
  %57 = load i32, ptr %56, align 8, !tbaa !42
  %58 = icmp eq i32 %57, 3
  br i1 %58, label %59, label %62

59:                                               ; preds = %9
  %60 = getelementptr inbounds nuw %struct.pm_location_t, ptr %54, i32 0, i32 0
  store ptr null, ptr %60, align 8, !tbaa !152
  %61 = getelementptr inbounds nuw %struct.pm_location_t, ptr %54, i32 0, i32 1
  store ptr null, ptr %61, align 8, !tbaa !153
  br label %71

62:                                               ; preds = %9
  %63 = getelementptr inbounds nuw %struct.pm_location_t, ptr %54, i32 0, i32 0
  %64 = load ptr, ptr %15, align 8, !tbaa !57
  %65 = getelementptr inbounds nuw %struct.pm_token_t, ptr %64, i32 0, i32 1
  %66 = load ptr, ptr %65, align 8, !tbaa !43
  store ptr %66, ptr %63, align 8, !tbaa !152
  %67 = getelementptr inbounds nuw %struct.pm_location_t, ptr %54, i32 0, i32 1
  %68 = load ptr, ptr %15, align 8, !tbaa !57
  %69 = getelementptr inbounds nuw %struct.pm_token_t, ptr %68, i32 0, i32 2
  %70 = load ptr, ptr %69, align 8, !tbaa !44
  store ptr %70, ptr %67, align 8, !tbaa !153
  br label %71

71:                                               ; preds = %62, %59
  %72 = getelementptr inbounds nuw %struct.pm_class_node, ptr %20, i32 0, i32 5
  %73 = load ptr, ptr %16, align 8, !tbaa !128
  store ptr %73, ptr %72, align 8, !tbaa !686
  %74 = getelementptr inbounds nuw %struct.pm_class_node, ptr %20, i32 0, i32 6
  %75 = load ptr, ptr %17, align 8, !tbaa !128
  store ptr %75, ptr %74, align 8, !tbaa !687
  %76 = getelementptr inbounds nuw %struct.pm_class_node, ptr %20, i32 0, i32 7
  %77 = getelementptr inbounds nuw %struct.pm_location_t, ptr %76, i32 0, i32 0
  %78 = load ptr, ptr %18, align 8, !tbaa !57
  %79 = getelementptr inbounds nuw %struct.pm_token_t, ptr %78, i32 0, i32 1
  %80 = load ptr, ptr %79, align 8, !tbaa !43
  store ptr %80, ptr %77, align 8, !tbaa !152
  %81 = getelementptr inbounds nuw %struct.pm_location_t, ptr %76, i32 0, i32 1
  %82 = load ptr, ptr %18, align 8, !tbaa !57
  %83 = getelementptr inbounds nuw %struct.pm_token_t, ptr %82, i32 0, i32 2
  %84 = load ptr, ptr %83, align 8, !tbaa !44
  store ptr %84, ptr %81, align 8, !tbaa !153
  %85 = getelementptr inbounds nuw %struct.pm_class_node, ptr %20, i32 0, i32 8
  %86 = load ptr, ptr %10, align 8, !tbaa !7
  %87 = load ptr, ptr %14, align 8, !tbaa !57
  %88 = call i32 @pm_parser_constant_id_token(ptr noundef %86, ptr noundef %87)
  store i32 %88, ptr %85, align 8, !tbaa !688
  %89 = getelementptr i8, ptr %20, i64 124
  call void @llvm.memset.p0.i64(ptr align 4 %89, i8 0, i64 4, i1 false)
  call void @llvm.memcpy.p0.p0.i64(ptr align 8 %23, ptr align 8 %20, i64 128, i1 false), !tbaa.struct !689
  %90 = load ptr, ptr %19, align 8, !tbaa !682
  call void @llvm.lifetime.end.p0(i64 8, ptr %19) #15
  ret ptr %90
}