; Function Attrs: nounwind sspstrong uwtable
define internal fastcc noalias nonnull ptr @pm_class_node_create(ptr noundef %0, ptr noundef nonnull readonly captures(none) %1, ptr %.8.val, ptr %.16.val, ptr noundef %2, ptr %.8.val1, ptr %.16.val3, ptr noundef nonnull readonly captures(none) %3, ptr noundef %4, ptr noundef %5, ptr noundef readonly captures(none) %6) unnamed_addr #1 {
  %.sroa.6 = alloca %struct.pm_constant_id_list_t, align 8
  %8 = tail call noalias dereferenceable_or_null(128) ptr @calloc(i64 noundef 1, i64 noundef 128) #34
  %9 = icmp eq ptr %8, null
  br i1 %9, label %10, label %pm_node_alloc.exit

10:                                               ; preds = %7
  %11 = load ptr, ptr @stderr, align 8, !tbaa !105
  %12 = tail call i32 (ptr, i32, ptr, ...) @__fprintf_chk(ptr noundef %11, i32 noundef 1, ptr noundef nonnull @.str.94, i32 noundef 128) #31
  tail call void @abort() #35
  unreachable

pm_node_alloc.exit:                               ; preds = %7
  %13 = load i32, ptr %0, align 8, !tbaa !107
  %14 = add i32 %13, 1
  store i32 %14, ptr %0, align 8, !tbaa !107
  %15 = getelementptr inbounds nuw i8, ptr %6, i64 16
  %16 = load ptr, ptr %15, align 8, !tbaa !126
  call void @llvm.memcpy.p0.p0.i64(ptr noundef nonnull align 8 dereferenceable(24) %.sroa.6, ptr noundef nonnull align 8 dereferenceable(24) %1, i64 24, i1 false), !tbaa.struct !507
  %17 = load i32, ptr %3, align 8, !tbaa !124
  %18 = icmp eq i32 %17, 3
  br i1 %18, label %24, label %19

19:                                               ; preds = %pm_node_alloc.exit
  %20 = getelementptr inbounds nuw i8, ptr %3, i64 8
  %21 = load ptr, ptr %20, align 8, !tbaa !125
  %22 = getelementptr inbounds nuw i8, ptr %3, i64 16
  %23 = load ptr, ptr %22, align 8, !tbaa !126
  br label %24

24:                                               ; preds = %pm_node_alloc.exit, %19
  %.sroa.10.0 = phi ptr [ %21, %19 ], [ null, %pm_node_alloc.exit ]
  %.sroa.12.0 = phi ptr [ %23, %19 ], [ null, %pm_node_alloc.exit ]
  %25 = getelementptr inbounds nuw i8, ptr %6, i64 8
  %26 = load ptr, ptr %25, align 8, !tbaa !125
  %27 = getelementptr inbounds nuw i8, ptr %0, i64 576
  %28 = ptrtoint ptr %.16.val3 to i64
  %29 = ptrtoint ptr %.8.val1 to i64
  %30 = sub i64 %28, %29
  %31 = tail call i32 @pm_constant_pool_insert_shared(ptr noundef nonnull %27, ptr noundef %.8.val1, i64 noundef %30) #31
  store i16 26, ptr %8, align 8, !tbaa !108
  %.sroa.3.0..sroa_idx = getelementptr inbounds nuw i8, ptr %8, i64 4
  store i32 %14, ptr %.sroa.3.0..sroa_idx, align 4, !tbaa !7
  %.sroa.4.0..sroa_idx = getelementptr inbounds nuw i8, ptr %8, i64 8
  store ptr %.8.val, ptr %.sroa.4.0..sroa_idx, align 8, !tbaa !14
  %.sroa.5.0..sroa_idx = getelementptr inbounds nuw i8, ptr %8, i64 16
  store ptr %16, ptr %.sroa.5.0..sroa_idx, align 8, !tbaa !14
  %.sroa.6.0..sroa_idx = getelementptr inbounds nuw i8, ptr %8, i64 24
  call void @llvm.memcpy.p0.p0.i64(ptr noundef nonnull align 8 dereferenceable(24) %.sroa.6.0..sroa_idx, ptr noundef nonnull align 8 dereferenceable(24) %.sroa.6, i64 24, i1 false), !tbaa.struct !509
  %.sroa.7.0..sroa_idx = getelementptr inbounds nuw i8, ptr %8, i64 48
  store ptr %.8.val, ptr %.sroa.7.0..sroa_idx, align 8, !tbaa !14
  %.sroa.8.0..sroa_idx = getelementptr inbounds nuw i8, ptr %8, i64 56
  store ptr %.16.val, ptr %.sroa.8.0..sroa_idx, align 8, !tbaa !14
  %.sroa.9.0..sroa_idx = getelementptr inbounds nuw i8, ptr %8, i64 64
  store ptr %2, ptr %.sroa.9.0..sroa_idx, align 8, !tbaa !103
  %.sroa.10.0..sroa_idx = getelementptr inbounds nuw i8, ptr %8, i64 72
  store ptr %.sroa.10.0, ptr %.sroa.10.0..sroa_idx, align 8, !tbaa !14
  %.sroa.12.0..sroa_idx = getelementptr inbounds nuw i8, ptr %8, i64 80
  store ptr %.sroa.12.0, ptr %.sroa.12.0..sroa_idx, align 8, !tbaa !14
  %.sroa.14.0..sroa_idx = getelementptr inbounds nuw i8, ptr %8, i64 88
  store ptr %4, ptr %.sroa.14.0..sroa_idx, align 8, !tbaa !103
  %.sroa.15.0..sroa_idx = getelementptr inbounds nuw i8, ptr %8, i64 96
  store ptr %5, ptr %.sroa.15.0..sroa_idx, align 8, !tbaa !103
  %.sroa.16.0..sroa_idx = getelementptr inbounds nuw i8, ptr %8, i64 104
  store ptr %26, ptr %.sroa.16.0..sroa_idx, align 8, !tbaa !14
  %.sroa.17.0..sroa_idx = getelementptr inbounds nuw i8, ptr %8, i64 112
  store ptr %16, ptr %.sroa.17.0..sroa_idx, align 8, !tbaa !14
  %.sroa.18.0..sroa_idx = getelementptr inbounds nuw i8, ptr %8, i64 120
  store i32 %31, ptr %.sroa.18.0..sroa_idx, align 8, !tbaa !7
  ret ptr %8
}